target datalayout = "e-m:e-p270:32:32-p271:32:32-p272:64:64-i64:64-i128:128-f80:128-n8:16:32:64-S128"
target triple = "x86_64-unknown-linux-gnu"

@_ZN4llvhL13firstByteMarkE = internal constant [7 x i8] c"\00\00\C0\E0\F0\F8\FC", align 1

; Function Attrs: mustprogress nounwind uwtable
define hidden noundef i32 @_ZN4llvh18ConvertUTF32toUTF8EPPKjS1_PPhS3_NS_15ConversionFlagsE(ptr noundef %sourceStart, ptr noundef %sourceEnd, ptr noundef %targetStart, ptr noundef %targetEnd, i32 noundef %flags) #0 {
entry:
  %sourceStart.addr = alloca ptr, align 8
  %sourceEnd.addr = alloca ptr, align 8
  %targetStart.addr = alloca ptr, align 8
  %targetEnd.addr = alloca ptr, align 8
  %flags.addr = alloca i32, align 4
  %result = alloca i32, align 4
  %source = alloca ptr, align 8
  %target = alloca ptr, align 8
  %ch = alloca i32, align 4
  %bytesToWrite = alloca i16, align 2
  %byteMask = alloca i32, align 4
  %byteMark = alloca i32, align 4
  store ptr %sourceStart, ptr %sourceStart.addr, align 8
  store ptr %sourceEnd, ptr %sourceEnd.addr, align 8
  store ptr %targetStart, ptr %targetStart.addr, align 8
  store ptr %targetEnd, ptr %targetEnd.addr, align 8
  store i32 %flags, ptr %flags.addr, align 4
  store i32 0, ptr %result, align 4
  %0 = load ptr, ptr %sourceStart.addr, align 8
  %1 = load ptr, ptr %0, align 8
  store ptr %1, ptr %source, align 8
  %2 = load ptr, ptr %targetStart.addr, align 8
  %3 = load ptr, ptr %2, align 8
  store ptr %3, ptr %target, align 8
  br label %while.cond

while.cond:                                       ; preds = %sw.epilog, %entry
  %4 = load ptr, ptr %source, align 8
  %5 = load ptr, ptr %sourceEnd.addr, align 8
  %cmp = icmp ult ptr %4, %5
  br i1 %cmp, label %while.body, label %while.end

while.body:                                       ; preds = %while.cond
  store i16 0, ptr %bytesToWrite, align 2
  store i32 191, ptr %byteMask, align 4
  store i32 128, ptr %byteMark, align 4
  %6 = load ptr, ptr %source, align 8
  %incdec.ptr = getelementptr inbounds i32, ptr %6, i32 1
  store ptr %incdec.ptr, ptr %source, align 8
  %7 = load i32, ptr %6, align 4
  store i32 %7, ptr %ch, align 4
  %8 = load i32, ptr %flags.addr, align 4
  %cmp1 = icmp eq i32 %8, 0
  br i1 %cmp1, label %if.then, label %if.end6

if.then:                                          ; preds = %while.body
  %9 = load i32, ptr %ch, align 4
  %cmp2 = icmp uge i32 %9, 55296
  br i1 %cmp2, label %land.lhs.true, label %if.end

land.lhs.true:                                    ; preds = %if.then
  %10 = load i32, ptr %ch, align 4
  %cmp3 = icmp ule i32 %10, 57343
  br i1 %cmp3, label %if.then4, label %if.end

if.then4:                                         ; preds = %land.lhs.true
  %11 = load ptr, ptr %source, align 8
  %incdec.ptr5 = getelementptr inbounds i32, ptr %11, i32 -1
  store ptr %incdec.ptr5, ptr %source, align 8
  store i32 3, ptr %result, align 4
  br label %while.end

if.end:                                           ; preds = %land.lhs.true, %if.then
  br label %if.end6

if.end6:                                          ; preds = %if.end, %while.body
  %12 = load i32, ptr %ch, align 4
  %cmp7 = icmp ult i32 %12, 128
  br i1 %cmp7, label %if.then8, label %if.else

if.then8:                                         ; preds = %if.end6
  store i16 1, ptr %bytesToWrite, align 2
  br label %if.end21

if.else:                                          ; preds = %if.end6
  %13 = load i32, ptr %ch, align 4
  %cmp9 = icmp ult i32 %13, 2048
  br i1 %cmp9, label %if.then10, label %if.else11

if.then10:                                        ; preds = %if.else
  store i16 2, ptr %bytesToWrite, align 2
  br label %if.end20

if.else11:                                        ; preds = %if.else
  %14 = load i32, ptr %ch, align 4
  %cmp12 = icmp ult i32 %14, 65536
  br i1 %cmp12, label %if.then13, label %if.else14

if.then13:                                        ; preds = %if.else11
  store i16 3, ptr %bytesToWrite, align 2
  br label %if.end19

if.else14:                                        ; preds = %if.else11
  %15 = load i32, ptr %ch, align 4
  %cmp15 = icmp ule i32 %15, 1114111
  br i1 %cmp15, label %if.then16, label %if.else17

if.then16:                                        ; preds = %if.else14
  store i16 4, ptr %bytesToWrite, align 2
  br label %if.end18

if.else17:                                        ; preds = %if.else14
  store i16 3, ptr %bytesToWrite, align 2
  store i32 65533, ptr %ch, align 4
  store i32 3, ptr %result, align 4
  br label %if.end18

if.end18:                                         ; preds = %if.else17, %if.then16
  br label %if.end19

if.end19:                                         ; preds = %if.end18, %if.then13
  br label %if.end20

if.end20:                                         ; preds = %if.end19, %if.then10
  br label %if.end21

if.end21:                                         ; preds = %if.end20, %if.then8
  %16 = load i16, ptr %bytesToWrite, align 2
  %conv = zext i16 %16 to i32
  %17 = load ptr, ptr %target, align 8
  %idx.ext = sext i32 %conv to i64
  %add.ptr = getelementptr inbounds i8, ptr %17, i64 %idx.ext
  store ptr %add.ptr, ptr %target, align 8
  %18 = load ptr, ptr %target, align 8
  %19 = load ptr, ptr %targetEnd.addr, align 8
  %cmp22 = icmp ugt ptr %18, %19
  br i1 %cmp22, label %if.then23, label %if.end28

if.then23:                                        ; preds = %if.end21
  %20 = load ptr, ptr %source, align 8
  %incdec.ptr24 = getelementptr inbounds i32, ptr %20, i32 -1
  store ptr %incdec.ptr24, ptr %source, align 8
  %21 = load i16, ptr %bytesToWrite, align 2
  %conv25 = zext i16 %21 to i32
  %22 = load ptr, ptr %target, align 8
  %idx.ext26 = sext i32 %conv25 to i64
  %idx.neg = sub i64 0, %idx.ext26
  %add.ptr27 = getelementptr inbounds i8, ptr %22, i64 %idx.neg
  store ptr %add.ptr27, ptr %target, align 8
  store i32 2, ptr %result, align 4
  br label %while.end

if.end28:                                         ; preds = %if.end21
  %23 = load i16, ptr %bytesToWrite, align 2
  %conv29 = zext i16 %23 to i32
  switch i32 %conv29, label %sw.epilog [
    i32 4, label %sw.bb
    i32 3, label %sw.bb32
    i32 2, label %sw.bb38
    i32 1, label %sw.bb44
  ]

sw.bb:                                            ; preds = %if.end28
  %24 = load i32, ptr %ch, align 4
  %or = or i32 %24, 128
  %and = and i32 %or, 191
  %conv30 = trunc i32 %and to i8
  %25 = load ptr, ptr %target, align 8
  %incdec.ptr31 = getelementptr inbounds i8, ptr %25, i32 -1
  store ptr %incdec.ptr31, ptr %target, align 8
  store i8 %conv30, ptr %incdec.ptr31, align 1
  %26 = load i32, ptr %ch, align 4
  %shr = lshr i32 %26, 6
  store i32 %shr, ptr %ch, align 4
  br label %sw.bb32

sw.bb32:                                          ; preds = %sw.bb, %if.end28
  %27 = load i32, ptr %ch, align 4
  %or33 = or i32 %27, 128
  %and34 = and i32 %or33, 191
  %conv35 = trunc i32 %and34 to i8
  %28 = load ptr, ptr %target, align 8
  %incdec.ptr36 = getelementptr inbounds i8, ptr %28, i32 -1
  store ptr %incdec.ptr36, ptr %target, align 8
  store i8 %conv35, ptr %incdec.ptr36, align 1
  %29 = load i32, ptr %ch, align 4
  %shr37 = lshr i32 %29, 6
  store i32 %shr37, ptr %ch, align 4
  br label %sw.bb38

sw.bb38:                                          ; preds = %sw.bb32, %if.end28
  %30 = load i32, ptr %ch, align 4
  %or39 = or i32 %30, 128
  %and40 = and i32 %or39, 191
  %conv41 = trunc i32 %and40 to i8
  %31 = load ptr, ptr %target, align 8
  %incdec.ptr42 = getelementptr inbounds i8, ptr %31, i32 -1
  store ptr %incdec.ptr42, ptr %target, align 8
  store i8 %conv41, ptr %incdec.ptr42, align 1
  %32 = load i32, ptr %ch, align 4
  %shr43 = lshr i32 %32, 6
  store i32 %shr43, ptr %ch, align 4
  br label %sw.bb44

sw.bb44:                                          ; preds = %sw.bb38, %if.end28
  %33 = load i32, ptr %ch, align 4
  %34 = load i16, ptr %bytesToWrite, align 2
  %idxprom = zext i16 %34 to i64
  %arrayidx = getelementptr inbounds [7 x i8], ptr @_ZN4llvhL13firstByteMarkE, i64 0, i64 %idxprom
  %35 = load i8, ptr %arrayidx, align 1
  %conv45 = zext i8 %35 to i32
  %or46 = or i32 %33, %conv45
  %conv47 = trunc i32 %or46 to i8
  %36 = load ptr, ptr %target, align 8
  %incdec.ptr48 = getelementptr inbounds i8, ptr %36, i32 -1
  store ptr %incdec.ptr48, ptr %target, align 8
  store i8 %conv47, ptr %incdec.ptr48, align 1
  br label %sw.epilog

sw.epilog:                                        ; preds = %sw.bb44, %if.end28
  %37 = load i16, ptr %bytesToWrite, align 2
  %conv49 = zext i16 %37 to i32
  %38 = load ptr, ptr %target, align 8
  %idx.ext50 = sext i32 %conv49 to i64
  %add.ptr51 = getelementptr inbounds i8, ptr %38, i64 %idx.ext50
  store ptr %add.ptr51, ptr %target, align 8
  br label %while.cond, !llvm.loop !8

while.end:                                        ; preds = %if.then23, %if.then4, %while.cond
  %39 = load ptr, ptr %source, align 8
  %40 = load ptr, ptr %sourceStart.addr, align 8
  store ptr %39, ptr %40, align 8
  %41 = load ptr, ptr %target, align 8
  %42 = load ptr, ptr %targetStart.addr, align 8
  store ptr %41, ptr %42, align 8
  %43 = load i32, ptr %result, align 4
  ret i32 %43
}