; Function Attrs: mustprogress nofree norecurse nosync nounwind memory(readwrite, inaccessiblemem: none) uwtable
define hidden noundef range(i32 0, 4) i32 @_ZN4llvh18ConvertUTF32toUTF8EPPKjS1_PPhS3_NS_15ConversionFlagsE(ptr noundef captures(none) %sourceStart, ptr noundef readnone %sourceEnd, ptr noundef captures(none) %targetStart, ptr noundef readnone %targetEnd, i32 noundef %flags) local_unnamed_addr #0 {
entry:
  %0 = load ptr, ptr %sourceStart, align 8
  %1 = load ptr, ptr %targetStart, align 8
  %cmp35 = icmp ult ptr %0, %sourceEnd
  br i1 %cmp35, label %while.body.lr.ph, label %while.end

while.body.lr.ph:                                 ; preds = %entry
  %cmp1 = icmp eq i32 %flags, 0
  br i1 %cmp1, label %while.body, label %while.body.us

while.body.us:                                    ; preds = %while.body.lr.ph, %sw.bb44.us
  %result.038.us = phi i32 [ %result.2.us, %sw.bb44.us ], [ 0, %while.body.lr.ph ]
  %source.037.us = phi ptr [ %incdec.ptr.us, %sw.bb44.us ], [ %0, %while.body.lr.ph ]
  %target.036.us = phi ptr [ %add.ptr51.us, %sw.bb44.us ], [ %1, %while.body.lr.ph ]
  %incdec.ptr.us = getelementptr inbounds nuw i8, ptr %source.037.us, i64 4
  %2 = load i32, ptr %source.037.us, align 4
  %cmp7.us = icmp ult i32 %2, 128
  br i1 %cmp7.us, label %if.end21.us, label %if.else.us

if.else.us:                                       ; preds = %while.body.us
  %cmp9.us = icmp ult i32 %2, 2048
  br i1 %cmp9.us, label %if.end21.us, label %if.else11.us

if.else11.us:                                     ; preds = %if.else.us
  %cmp12.us = icmp ult i32 %2, 65536
  br i1 %cmp12.us, label %if.end21.us, label %if.else14.us

if.else14.us:                                     ; preds = %if.else11.us
  %cmp15.us = icmp ult i32 %2, 1114112
  %..us = select i1 %cmp15.us, i32 %2, i32 65533
  %.32.us = select i1 %cmp15.us, i16 4, i16 3
  %result.0..us = select i1 %cmp15.us, i32 %result.038.us, i32 3
  br label %if.end21.us

if.end21.us:                                      ; preds = %if.else14.us, %if.else11.us, %if.else.us, %while.body.us
  %ch.0.us = phi i32 [ %2, %while.body.us ], [ %2, %if.else.us ], [ %2, %if.else11.us ], [ %..us, %if.else14.us ]
  %bytesToWrite.0.us = phi i16 [ 1, %while.body.us ], [ 2, %if.else.us ], [ 3, %if.else11.us ], [ %.32.us, %if.else14.us ]
  %result.2.us = phi i32 [ %result.038.us, %while.body.us ], [ %result.038.us, %if.else.us ], [ %result.038.us, %if.else11.us ], [ %result.0..us, %if.else14.us ]
  %idx.ext.us = zext nneg i16 %bytesToWrite.0.us to i64
  %add.ptr.us = getelementptr inbounds nuw i8, ptr %target.036.us, i64 %idx.ext.us
  %cmp22.us = icmp ugt ptr %add.ptr.us, %targetEnd
  br i1 %cmp22.us, label %while.end, label %if.end28.us

if.end28.us:                                      ; preds = %if.end21.us
  switch i16 %bytesToWrite.0.us, label %default.unreachable57 [
    i16 4, label %sw.bb.us
    i16 3, label %sw.bb32.us
    i16 2, label %sw.bb38.us
    i16 1, label %sw.bb44.us
  ]

sw.bb.us:                                         ; preds = %if.end28.us
  %3 = trunc i32 %ch.0.us to i8
  %4 = and i8 %3, 63
  %conv30.us = or disjoint i8 %4, -128
  %incdec.ptr31.us = getelementptr inbounds i8, ptr %add.ptr.us, i64 -1
  store i8 %conv30.us, ptr %incdec.ptr31.us, align 1
  %shr.us = lshr i32 %ch.0.us, 6
  br label %sw.bb32.us

sw.bb32.us:                                       ; preds = %sw.bb.us, %if.end28.us
  %target.3.us = phi ptr [ %add.ptr.us, %if.end28.us ], [ %incdec.ptr31.us, %sw.bb.us ]
  %ch.1.us = phi i32 [ %ch.0.us, %if.end28.us ], [ %shr.us, %sw.bb.us ]
  %5 = trunc i32 %ch.1.us to i8
  %6 = and i8 %5, 63
  %conv35.us = or disjoint i8 %6, -128
  %incdec.ptr36.us = getelementptr inbounds i8, ptr %target.3.us, i64 -1
  store i8 %conv35.us, ptr %incdec.ptr36.us, align 1
  %shr37.us = lshr i32 %ch.1.us, 6
  br label %sw.bb38.us

sw.bb38.us:                                       ; preds = %sw.bb32.us, %if.end28.us
  %target.4.us = phi ptr [ %add.ptr.us, %if.end28.us ], [ %incdec.ptr36.us, %sw.bb32.us ]
  %ch.2.us = phi i32 [ %ch.0.us, %if.end28.us ], [ %shr37.us, %sw.bb32.us ]
  %7 = trunc i32 %ch.2.us to i8
  %8 = and i8 %7, 63
  %conv41.us = or disjoint i8 %8, -128
  %incdec.ptr42.us = getelementptr inbounds i8, ptr %target.4.us, i64 -1
  store i8 %conv41.us, ptr %incdec.ptr42.us, align 1
  %shr43.us = lshr i32 %ch.2.us, 6
  br label %sw.bb44.us

sw.bb44.us:                                       ; preds = %sw.bb38.us, %if.end28.us
  %target.5.us = phi ptr [ %add.ptr.us, %if.end28.us ], [ %incdec.ptr42.us, %sw.bb38.us ]
  %ch.3.us = phi i32 [ %ch.0.us, %if.end28.us ], [ %shr43.us, %sw.bb38.us ]
  %arrayidx.us = getelementptr inbounds nuw [7 x i8], ptr @_ZN4llvhL13firstByteMarkE, i64 0, i64 %idx.ext.us
  %9 = load i8, ptr %arrayidx.us, align 1
  %10 = trunc i32 %ch.3.us to i8
  %conv47.us = or i8 %9, %10
  %incdec.ptr48.us = getelementptr inbounds i8, ptr %target.5.us, i64 -1
  store i8 %conv47.us, ptr %incdec.ptr48.us, align 1
  %add.ptr51.us = getelementptr inbounds nuw i8, ptr %incdec.ptr48.us, i64 %idx.ext.us
  %cmp.us = icmp ult ptr %incdec.ptr.us, %sourceEnd
  br i1 %cmp.us, label %while.body.us, label %while.end, !llvm.loop !8

while.body:                                       ; preds = %while.body.lr.ph, %sw.bb44
  %result.038 = phi i32 [ %result.2, %sw.bb44 ], [ 0, %while.body.lr.ph ]
  %source.037 = phi ptr [ %incdec.ptr, %sw.bb44 ], [ %0, %while.body.lr.ph ]
  %target.036 = phi ptr [ %add.ptr51, %sw.bb44 ], [ %1, %while.body.lr.ph ]
  %incdec.ptr = getelementptr inbounds nuw i8, ptr %source.037, i64 4
  %11 = load i32, ptr %source.037, align 4
  %12 = and i32 %11, -2048
  %or.cond = icmp eq i32 %12, 55296
  br i1 %or.cond, label %while.end, label %if.end6

if.end6:                                          ; preds = %while.body
  %cmp7 = icmp ult i32 %11, 128
  br i1 %cmp7, label %if.end21, label %if.else

if.else:                                          ; preds = %if.end6
  %cmp9 = icmp ult i32 %11, 2048
  br i1 %cmp9, label %if.end21, label %if.else11

if.else11:                                        ; preds = %if.else
  %cmp12 = icmp ult i32 %11, 65536
  br i1 %cmp12, label %if.end21, label %if.else14

if.else14:                                        ; preds = %if.else11
  %cmp15 = icmp ult i32 %11, 1114112
  %. = select i1 %cmp15, i32 %11, i32 65533
  %.32 = select i1 %cmp15, i16 4, i16 3
  %result.0. = select i1 %cmp15, i32 %result.038, i32 3
  br label %if.end21

if.end21:                                         ; preds = %if.else14, %if.else11, %if.else, %if.end6
  %ch.0 = phi i32 [ %11, %if.end6 ], [ %11, %if.else ], [ %11, %if.else11 ], [ %., %if.else14 ]
  %bytesToWrite.0 = phi i16 [ 1, %if.end6 ], [ 2, %if.else ], [ 3, %if.else11 ], [ %.32, %if.else14 ]
  %result.2 = phi i32 [ %result.038, %if.end6 ], [ %result.038, %if.else ], [ %result.038, %if.else11 ], [ %result.0., %if.else14 ]
  %idx.ext = zext nneg i16 %bytesToWrite.0 to i64
  %add.ptr = getelementptr inbounds nuw i8, ptr %target.036, i64 %idx.ext
  %cmp22 = icmp ugt ptr %add.ptr, %targetEnd
  br i1 %cmp22, label %while.end, label %if.end28

if.end28:                                         ; preds = %if.end21
  switch i16 %bytesToWrite.0, label %default.unreachable57 [
    i16 4, label %sw.bb
    i16 3, label %sw.bb32
    i16 2, label %sw.bb38
    i16 1, label %sw.bb44
  ]

sw.bb:                                            ; preds = %if.end28
  %13 = trunc i32 %ch.0 to i8
  %14 = and i8 %13, 63
  %conv30 = or disjoint i8 %14, -128
  %incdec.ptr31 = getelementptr inbounds i8, ptr %add.ptr, i64 -1
  store i8 %conv30, ptr %incdec.ptr31, align 1
  %shr = lshr i32 %ch.0, 6
  br label %sw.bb32

sw.bb32:                                          ; preds = %sw.bb, %if.end28
  %target.3 = phi ptr [ %add.ptr, %if.end28 ], [ %incdec.ptr31, %sw.bb ]
  %ch.1 = phi i32 [ %ch.0, %if.end28 ], [ %shr, %sw.bb ]
  %15 = trunc i32 %ch.1 to i8
  %16 = and i8 %15, 63
  %conv35 = or disjoint i8 %16, -128
  %incdec.ptr36 = getelementptr inbounds i8, ptr %target.3, i64 -1
  store i8 %conv35, ptr %incdec.ptr36, align 1
  %shr37 = lshr i32 %ch.1, 6
  br label %sw.bb38

sw.bb38:                                          ; preds = %sw.bb32, %if.end28
  %target.4 = phi ptr [ %add.ptr, %if.end28 ], [ %incdec.ptr36, %sw.bb32 ]
  %ch.2 = phi i32 [ %ch.0, %if.end28 ], [ %shr37, %sw.bb32 ]
  %17 = trunc i32 %ch.2 to i8
  %18 = and i8 %17, 63
  %conv41 = or disjoint i8 %18, -128
  %incdec.ptr42 = getelementptr inbounds i8, ptr %target.4, i64 -1
  store i8 %conv41, ptr %incdec.ptr42, align 1
  %shr43 = lshr i32 %ch.2, 6
  br label %sw.bb44

sw.bb44:                                          ; preds = %sw.bb38, %if.end28
  %target.5 = phi ptr [ %add.ptr, %if.end28 ], [ %incdec.ptr42, %sw.bb38 ]
  %ch.3 = phi i32 [ %ch.0, %if.end28 ], [ %shr43, %sw.bb38 ]
  %arrayidx = getelementptr inbounds nuw [7 x i8], ptr @_ZN4llvhL13firstByteMarkE, i64 0, i64 %idx.ext
  %19 = load i8, ptr %arrayidx, align 1
  %20 = trunc i32 %ch.3 to i8
  %conv47 = or i8 %19, %20
  %incdec.ptr48 = getelementptr inbounds i8, ptr %target.5, i64 -1
  store i8 %conv47, ptr %incdec.ptr48, align 1
  %add.ptr51 = getelementptr inbounds nuw i8, ptr %incdec.ptr48, i64 %idx.ext
  %cmp = icmp ult ptr %incdec.ptr, %sourceEnd
  br i1 %cmp, label %while.body, label %while.end, !llvm.loop !8

default.unreachable57:                            ; preds = %if.end28.us, %if.end28
  unreachable

while.end:                                        ; preds = %sw.bb44.us, %if.end21.us, %sw.bb44, %while.body, %if.end21, %entry
  %target.0.lcssa = phi ptr [ %1, %entry ], [ %target.036, %if.end21 ], [ %target.036, %while.body ], [ %add.ptr51, %sw.bb44 ], [ %target.036.us, %if.end21.us ], [ %add.ptr51.us, %sw.bb44.us ]
  %source.0.lcssa = phi ptr [ %0, %entry ], [ %source.037, %if.end21 ], [ %source.037, %while.body ], [ %incdec.ptr, %sw.bb44 ], [ %source.037.us, %if.end21.us ], [ %incdec.ptr.us, %sw.bb44.us ]
  %result.1 = phi i32 [ 0, %entry ], [ 2, %if.end21 ], [ 3, %while.body ], [ %result.2, %sw.bb44 ], [ 2, %if.end21.us ], [ %result.2.us, %sw.bb44.us ]
  store ptr %source.0.lcssa, ptr %sourceStart, align 8
  store ptr %target.0.lcssa, ptr %targetStart, align 8
  ret i32 %result.1
}